target datalayout = "e-m:e-p270:32:32-p271:32:32-p272:64:64-i64:64-i128:128-f80:128-n8:16:32:64-S128"
target triple = "x86_64-pc-linux-gnu"

%"class.net::QuicPacketCreator" = type { ptr, ptr, ptr, %"class.net::QuicPacketCreator::QuicRandomBoolSource", ptr, i8, i8, i8, i8, %"struct.std::array", i64, i64, i32, %"class.std::vector", i64, i64, %"struct.net::SerializedPacket", %"class.std::unordered_map" }
%"class.net::QuicPacketCreator::QuicRandomBoolSource" = type { ptr, i64, i64 }
%"struct.std::array" = type { [32 x i8] }
%"class.std::vector" = type { %"struct.std::_Vector_base" }
%"struct.std::_Vector_base" = type { %"struct.std::_Vector_base<net::QuicFrame, std::allocator<net::QuicFrame>>::_Vector_impl" }
%"struct.std::_Vector_base<net::QuicFrame, std::allocator<net::QuicFrame>>::_Vector_impl" = type { %"struct.std::_Vector_base<net::QuicFrame, std::allocator<net::QuicFrame>>::_Vector_impl_data" }
%"struct.std::_Vector_base<net::QuicFrame, std::allocator<net::QuicFrame>>::_Vector_impl_data" = type { ptr, ptr, ptr }
%"struct.net::SerializedPacket" = type { ptr, i16, %"class.std::vector", i8, i16, i8, i64, i8, i8, i8, i8, i8, i8, i8, i64, %"class.std::__cxx11::list" }
%"class.std::__cxx11::list" = type { %"class.std::__cxx11::_List_base" }
%"class.std::__cxx11::_List_base" = type { %"struct.std::__cxx11::_List_base<net::AckListenerWrapper, std::allocator<net::AckListenerWrapper>>::_List_impl" }
%"struct.std::__cxx11::_List_base<net::AckListenerWrapper, std::allocator<net::AckListenerWrapper>>::_List_impl" = type { %"struct.std::__detail::_List_node_header" }
%"struct.std::__detail::_List_node_header" = type { %"struct.std::__detail::_List_node_base", i64 }
%"struct.std::__detail::_List_node_base" = type { ptr, ptr }
%"class.std::unordered_map" = type { %"class.std::_Hashtable" }
%"class.std::_Hashtable" = type { ptr, i64, %"struct.std::__detail::_Hash_node_base", i64, %"struct.std::__detail::_Prime_rehash_policy", ptr }
%"struct.std::__detail::_Hash_node_base" = type { ptr }
%"struct.std::__detail::_Prime_rehash_policy" = type { float, i64 }
%"class.std::__cxx11::basic_string" = type { %"struct.std::__cxx11::basic_string<char>::_Alloc_hider", i64, %union.anon }
%"struct.std::__cxx11::basic_string<char>::_Alloc_hider" = type { ptr }
%union.anon = type { i64, [8 x i8] }
%"class.std::vector.24" = type { %"struct.std::_Vector_base.25" }
%"struct.std::_Vector_base.25" = type { %"struct.std::_Vector_base<net::QuicVersion, std::allocator<net::QuicVersion>>::_Vector_impl" }
%"struct.std::_Vector_base<net::QuicVersion, std::allocator<net::QuicVersion>>::_Vector_impl" = type { %"struct.std::_Vector_base<net::QuicVersion, std::allocator<net::QuicVersion>>::_Vector_impl_data" }
%"struct.std::_Vector_base<net::QuicVersion, std::allocator<net::QuicVersion>>::_Vector_impl_data" = type { ptr, ptr, ptr }
%"class.logging::CheckOpResult" = type { ptr }
%"class.logging::LogMessage" = type <{ i32, [4 x i8], %"class.std::__cxx11::basic_ostringstream", i64, ptr, i32, [4 x i8] }>
%"class.std::__cxx11::basic_ostringstream" = type { %"class.std::basic_ostream.base", %"class.std::__cxx11::basic_stringbuf", %"class.std::basic_ios" }
%"class.std::basic_ostream.base" = type { ptr }
%"class.std::__cxx11::basic_stringbuf" = type { %"class.std::basic_streambuf", i32, %"class.std::__cxx11::basic_string" }
%"class.std::basic_streambuf" = type { ptr, ptr, ptr, ptr, ptr, ptr, ptr, %"class.std::locale" }
%"class.std::locale" = type { ptr }
%"class.std::basic_ios" = type { %"class.std::ios_base", ptr, i8, i8, ptr, ptr, ptr, ptr }
%"class.std::ios_base" = type { ptr, i64, i64, i32, i32, i32, ptr, %"struct.std::ios_base::_Words", [8 x %"struct.std::ios_base::_Words"], i32, ptr, %"class.std::locale" }
%"struct.std::ios_base::_Words" = type { ptr, i64 }
%"struct.net::QuicPacketHeader" = type <{ %"struct.net::QuicPacketPublicHeader", i64, i8, i8, i8, i8, [4 x i8] }>
%"struct.net::QuicPacketPublicHeader" = type { i64, i32, i8, i8, i8, i8, %"class.std::vector.24", ptr }

@.str = private unnamed_addr constant [134 x i8] c"generated/home/dtcxzyw/WorkSpace/Projects/compilers/llvm-opt-benchmark/bench/libquic/libquic/src/net/quic/core/quic_packet_creator.cc\00", align 1

; Function Attrs: mustprogress uwtable
define noundef zeroext i1 @_ZN3net17QuicPacketCreator20QuicRandomBoolSource8RandBoolEv(ptr noundef nonnull align 8 dereferenceable(24) %0) #0 align 2 {
  %2 = alloca ptr, align 8
  %3 = alloca i8, align 1
  store ptr %0, ptr %2, align 8, !tbaa !237
  %4 = load ptr, ptr %2, align 8
  %5 = getelementptr inbounds nuw %"class.net::QuicPacketCreator::QuicRandomBoolSource", ptr %4, i32 0, i32 2
  %6 = load i64, ptr %5, align 8, !tbaa !239
  %7 = icmp eq i64 %6, 0
  br i1 %7, label %8, label %17

8:                                                ; preds = %1
  %9 = getelementptr inbounds nuw %"class.net::QuicPacketCreator::QuicRandomBoolSource", ptr %4, i32 0, i32 0
  %10 = load ptr, ptr %9, align 8, !tbaa !240
  %11 = load ptr, ptr %10, align 8, !tbaa !122
  %12 = getelementptr inbounds ptr, ptr %11, i64 3
  %13 = load ptr, ptr %12, align 8
  %14 = call noundef i64 %13(ptr noundef nonnull align 8 dereferenceable(8) %10)
  %15 = getelementptr inbounds nuw %"class.net::QuicPacketCreator::QuicRandomBoolSource", ptr %4, i32 0, i32 1
  store i64 %14, ptr %15, align 8, !tbaa !241
  %16 = getelementptr inbounds nuw %"class.net::QuicPacketCreator::QuicRandomBoolSource", ptr %4, i32 0, i32 2
  store i64 1, ptr %16, align 8, !tbaa !239
  br label %17

17:                                               ; preds = %8, %1
  call void @llvm.lifetime.start.p0(i64 1, ptr %3) #16
  %18 = getelementptr inbounds nuw %"class.net::QuicPacketCreator::QuicRandomBoolSource", ptr %4, i32 0, i32 1
  %19 = load i64, ptr %18, align 8, !tbaa !241
  %20 = getelementptr inbounds nuw %"class.net::QuicPacketCreator::QuicRandomBoolSource", ptr %4, i32 0, i32 2
  %21 = load i64, ptr %20, align 8, !tbaa !239
  %22 = and i64 %19, %21
  %23 = icmp ne i64 %22, 0
  %24 = zext i1 %23 to i8
  store i8 %24, ptr %3, align 1, !tbaa !110
  %25 = getelementptr inbounds nuw %"class.net::QuicPacketCreator::QuicRandomBoolSource", ptr %4, i32 0, i32 2
  %26 = load i64, ptr %25, align 8, !tbaa !239
  %27 = shl i64 %26, 1
  store i64 %27, ptr %25, align 8, !tbaa !239
  %28 = load i8, ptr %3, align 1, !tbaa !110, !range !111, !noundef !112
  %29 = trunc i8 %28 to i1
  call void @llvm.lifetime.end.p0(i64 1, ptr %3) #16
  ret i1 %29
}

; Function Attrs: mustprogress nounwind uwtable
define linkonce_odr noundef nonnull align 8 dereferenceable(8) ptr @_ZN7logging10LogMessage6streamEv(ptr noundef nonnull align 8 dereferenceable(404) %0) #1 comdat align 2 {
  %2 = alloca ptr, align 8
  store ptr %0, ptr %2, align 8, !tbaa !104
  %3 = load ptr, ptr %2, align 8
  %4 = getelementptr inbounds nuw %"class.logging::LogMessage", ptr %3, i32 0, i32 2
  ret ptr %4
}

; Function Attrs: mustprogress nounwind uwtable
define linkonce_odr noundef ptr @_ZN7logging13CheckOpResult7messageB5cxx11Ev(ptr noundef nonnull align 8 dereferenceable(8) %0) #1 comdat align 2 {
  %2 = alloca ptr, align 8
  store ptr %0, ptr %2, align 8, !tbaa !98
  %3 = load ptr, ptr %2, align 8
  %4 = getelementptr inbounds nuw %"class.logging::CheckOpResult", ptr %3, i32 0, i32 0
  %5 = load ptr, ptr %4, align 8, !tbaa !102
  ret ptr %5
}

; Function Attrs: mustprogress nounwind uwtable
define linkonce_odr noundef zeroext i1 @_ZNK7logging13CheckOpResultcvbEv(ptr noundef nonnull align 8 dereferenceable(8) %0) #1 comdat align 2 {
  %2 = alloca ptr, align 8
  store ptr %0, ptr %2, align 8, !tbaa !98
  %3 = load ptr, ptr %2, align 8
  %4 = getelementptr inbounds nuw %"class.logging::CheckOpResult", ptr %3, i32 0, i32 0
  %5 = load ptr, ptr %4, align 8, !tbaa !102
  %6 = icmp ne ptr %5, null
  %7 = xor i1 %6, true
  ret i1 %7
}

; Function Attrs: mustprogress nounwind uwtable
define linkonce_odr void @_ZN7logging13CheckOpResultC2EPNSt7__cxx1112basic_stringIcSt11char_traitsIcESaIcEEE(ptr noundef nonnull align 8 dereferenceable(8) %0, ptr noundef %1) unnamed_addr #1 comdat align 2 {
  %3 = alloca ptr, align 8
  %4 = alloca ptr, align 8
  store ptr %0, ptr %3, align 8, !tbaa !98
  store ptr %1, ptr %4, align 8, !tbaa !100
  %5 = load ptr, ptr %3, align 8
  %6 = getelementptr inbounds nuw %"class.logging::CheckOpResult", ptr %5, i32 0, i32 0
  %7 = load ptr, ptr %4, align 8, !tbaa !100
  store ptr %7, ptr %6, align 8, !tbaa !102
  ret void
}

; Function Attrs: mustprogress nounwind uwtable
define noundef zeroext i1 @_ZN3net17QuicPacketCreator26IncludeNonceInPublicHeaderEv(ptr noundef nonnull align 8 dereferenceable(312) %0) #1 align 2 {
  %2 = alloca ptr, align 8
  store ptr %0, ptr %2, align 8, !tbaa !3
  %3 = load ptr, ptr %2, align 8
  %4 = getelementptr inbounds nuw %"class.net::QuicPacketCreator", ptr %3, i32 0, i32 8
  %5 = load i8, ptr %4, align 1, !tbaa !56, !range !111, !noundef !112
  %6 = trunc i8 %5 to i1
  br i1 %6, label %7, label %13

7:                                                ; preds = %1
  %8 = getelementptr inbounds nuw %"class.net::QuicPacketCreator", ptr %3, i32 0, i32 16
  %9 = getelementptr inbounds nuw %"struct.net::SerializedPacket", ptr %8, i32 0, i32 8
  %10 = load i8, ptr %9, align 1, !tbaa !155
  %11 = sext i8 %10 to i32
  %12 = icmp eq i32 %11, 1
  br label %13

13:                                               ; preds = %7, %1
  %14 = phi i1 [ false, %1 ], [ %12, %7 ]
  ret i1 %14
}

; Function Attrs: mustprogress uwtable
define void @_ZN3net17QuicPacketCreator16FillPacketHeaderEPNS_16QuicPacketHeaderE(ptr noundef nonnull align 8 dereferenceable(312) %0, ptr noundef %1) #0 align 2 personality ptr @__gxx_personality_v0 {
  %3 = alloca ptr, align 8
  %4 = alloca ptr, align 8
  %5 = alloca %"class.logging::CheckOpResult", align 8
  %6 = alloca %"class.logging::LogMessage", align 8
  %7 = alloca ptr, align 8
  %8 = alloca i32, align 4
  store ptr %0, ptr %3, align 8, !tbaa !3
  store ptr %1, ptr %4, align 8, !tbaa !207
  %9 = load ptr, ptr %3, align 8
  %10 = getelementptr inbounds nuw %"class.net::QuicPacketCreator", ptr %9, i32 0, i32 15
  %11 = load i64, ptr %10, align 8, !tbaa !60
  %12 = load ptr, ptr %4, align 8, !tbaa !207
  %13 = getelementptr inbounds nuw %"struct.net::QuicPacketHeader", ptr %12, i32 0, i32 0
  %14 = getelementptr inbounds nuw %"struct.net::QuicPacketPublicHeader", ptr %13, i32 0, i32 0
  store i64 %11, ptr %14, align 8, !tbaa !209
  %15 = getelementptr inbounds nuw %"class.net::QuicPacketCreator", ptr %9, i32 0, i32 12
  %16 = load i32, ptr %15, align 8, !tbaa !58
  %17 = load ptr, ptr %4, align 8, !tbaa !207
  %18 = getelementptr inbounds nuw %"struct.net::QuicPacketHeader", ptr %17, i32 0, i32 0
  %19 = getelementptr inbounds nuw %"struct.net::QuicPacketPublicHeader", ptr %18, i32 0, i32 1
  store i32 %16, ptr %19, align 8, !tbaa !210
  %20 = getelementptr inbounds nuw %"class.net::QuicPacketCreator", ptr %9, i32 0, i32 6
  %21 = load i8, ptr %20, align 1, !tbaa !54, !range !111, !noundef !112
  %22 = trunc i8 %21 to i1
  %23 = load ptr, ptr %4, align 8, !tbaa !207
  %24 = getelementptr inbounds nuw %"struct.net::QuicPacketHeader", ptr %23, i32 0, i32 0
  %25 = getelementptr inbounds nuw %"struct.net::QuicPacketPublicHeader", ptr %24, i32 0, i32 2
  %26 = zext i1 %22 to i8
  store i8 %26, ptr %25, align 4, !tbaa !211
  %27 = load ptr, ptr %4, align 8, !tbaa !207
  %28 = getelementptr inbounds nuw %"struct.net::QuicPacketHeader", ptr %27, i32 0, i32 0
  %29 = getelementptr inbounds nuw %"struct.net::QuicPacketPublicHeader", ptr %28, i32 0, i32 3
  store i8 0, ptr %29, align 1, !tbaa !212
  %30 = getelementptr inbounds nuw %"class.net::QuicPacketCreator", ptr %9, i32 0, i32 5
  %31 = load i8, ptr %30, align 8, !tbaa !53, !range !111, !noundef !112
  %32 = trunc i8 %31 to i1
  %33 = load ptr, ptr %4, align 8, !tbaa !207
  %34 = getelementptr inbounds nuw %"struct.net::QuicPacketHeader", ptr %33, i32 0, i32 0
  %35 = getelementptr inbounds nuw %"struct.net::QuicPacketPublicHeader", ptr %34, i32 0, i32 4
  %36 = zext i1 %32 to i8
  store i8 %36, ptr %35, align 2, !tbaa !213
  %37 = call noundef zeroext i1 @_ZN3net17QuicPacketCreator26IncludeNonceInPublicHeaderEv(ptr noundef nonnull align 8 dereferenceable(312) %9)
  br i1 %37, label %38, label %54

38:                                               ; preds = %2
  call void @llvm.lifetime.start.p0(i64 8, ptr %5) #16
  call void @_ZN7logging13CheckOpResultC2EPNSt7__cxx1112basic_stringIcSt11char_traitsIcESaIcEEE(ptr noundef nonnull align 8 dereferenceable(8) %5, ptr noundef null)
  %39 = call noundef zeroext i1 @_ZNK7logging13CheckOpResultcvbEv(ptr noundef nonnull align 8 dereferenceable(8) %5)
  br i1 %39, label %40, label %41

40:                                               ; preds = %38
  br label %49

41:                                               ; preds = %38
  call void @llvm.lifetime.start.p0(i64 408, ptr %6) #16
  %42 = call noundef ptr @_ZN7logging13CheckOpResult7messageB5cxx11Ev(ptr noundef nonnull align 8 dereferenceable(8) %5)
  call void @_ZN7logging10LogMessageC1EPKciiPNSt7__cxx1112basic_stringIcSt11char_traitsIcESaIcEEE(ptr noundef nonnull align 8 dereferenceable(404) %6, ptr noundef @.str, i32 noundef 588, i32 noundef 0, ptr noundef %42)
  %43 = invoke noundef nonnull align 8 dereferenceable(8) ptr @_ZN7logging10LogMessage6streamEv(ptr noundef nonnull align 8 dereferenceable(404) %6)
          to label %44 unwind label %45

44:                                               ; preds = %41
  call void @_ZN7logging10LogMessageD1Ev(ptr noundef nonnull align 8 dereferenceable(404) %6) #16
  call void @llvm.lifetime.end.p0(i64 408, ptr %6) #16
  br label %49

45:                                               ; preds = %41
  %46 = landingpad { ptr, i32 }
          cleanup
  %47 = extractvalue { ptr, i32 } %46, 0
  store ptr %47, ptr %7, align 8
  %48 = extractvalue { ptr, i32 } %46, 1
  store i32 %48, ptr %8, align 4
  call void @_ZN7logging10LogMessageD1Ev(ptr noundef nonnull align 8 dereferenceable(404) %6) #16
  call void @llvm.lifetime.end.p0(i64 408, ptr %6) #16
  call void @llvm.lifetime.end.p0(i64 8, ptr %5) #16
  br label %81

49:                                               ; preds = %44, %40
  call void @llvm.lifetime.end.p0(i64 8, ptr %5) #16
  %50 = getelementptr inbounds nuw %"class.net::QuicPacketCreator", ptr %9, i32 0, i32 9
  %51 = load ptr, ptr %4, align 8, !tbaa !207
  %52 = getelementptr inbounds nuw %"struct.net::QuicPacketHeader", ptr %51, i32 0, i32 0
  %53 = getelementptr inbounds nuw %"struct.net::QuicPacketPublicHeader", ptr %52, i32 0, i32 7
  store ptr %50, ptr %53, align 8, !tbaa !214
  br label %58

54:                                               ; preds = %2
  %55 = load ptr, ptr %4, align 8, !tbaa !207
  %56 = getelementptr inbounds nuw %"struct.net::QuicPacketHeader", ptr %55, i32 0, i32 0
  %57 = getelementptr inbounds nuw %"struct.net::QuicPacketPublicHeader", ptr %56, i32 0, i32 7
  store ptr null, ptr %57, align 8, !tbaa !214
  br label %58

58:                                               ; preds = %54, %49
  %59 = getelementptr inbounds nuw %"class.net::QuicPacketCreator", ptr %9, i32 0, i32 16
  %60 = getelementptr inbounds nuw %"struct.net::SerializedPacket", ptr %59, i32 0, i32 5
  %61 = load i8, ptr %60, align 4, !tbaa !194
  %62 = load ptr, ptr %4, align 8, !tbaa !207
  %63 = getelementptr inbounds nuw %"struct.net::QuicPacketHeader", ptr %62, i32 0, i32 2
  store i8 %61, ptr %63, align 8, !tbaa !215
  %64 = getelementptr inbounds nuw %"class.net::QuicPacketCreator", ptr %9, i32 0, i32 16
  %65 = getelementptr inbounds nuw %"struct.net::SerializedPacket", ptr %64, i32 0, i32 6
  %66 = load i64, ptr %65, align 8, !tbaa !116
  %67 = add i64 %66, 1
  store i64 %67, ptr %65, align 8, !tbaa !116
  %68 = load ptr, ptr %4, align 8, !tbaa !207
  %69 = getelementptr inbounds nuw %"struct.net::QuicPacketHeader", ptr %68, i32 0, i32 1
  store i64 %67, ptr %69, align 8, !tbaa !204
  %70 = getelementptr inbounds nuw %"class.net::QuicPacketCreator", ptr %9, i32 0, i32 16
  %71 = getelementptr inbounds nuw %"struct.net::SerializedPacket", ptr %70, i32 0, i32 7
  %72 = load i8, ptr %71, align 8, !tbaa !97
  %73 = load ptr, ptr %4, align 8, !tbaa !207
  %74 = getelementptr inbounds nuw %"struct.net::QuicPacketHeader", ptr %73, i32 0, i32 0
  %75 = getelementptr inbounds nuw %"struct.net::QuicPacketPublicHeader", ptr %74, i32 0, i32 5
  store i8 %72, ptr %75, align 1, !tbaa !216
  %76 = getelementptr inbounds nuw %"class.net::QuicPacketCreator", ptr %9, i32 0, i32 3
  %77 = call noundef zeroext i1 @_ZN3net17QuicPacketCreator20QuicRandomBoolSource8RandBoolEv(ptr noundef nonnull align 8 dereferenceable(24) %76)
  %78 = load ptr, ptr %4, align 8, !tbaa !207
  %79 = getelementptr inbounds nuw %"struct.net::QuicPacketHeader", ptr %78, i32 0, i32 3
  %80 = zext i1 %77 to i8
  store i8 %80, ptr %79, align 1, !tbaa !217
  ret void

81:                                               ; preds = %45
  %82 = load ptr, ptr %7, align 8
  %83 = load i32, ptr %8, align 4
  %84 = insertvalue { ptr, i32 } poison, ptr %82, 0
  %85 = insertvalue { ptr, i32 } %84, i32 %83, 1
  resume { ptr, i32 } %85
}