; Function Attrs: mustprogress uwtable
define void @_ZN3net17QuicPacketCreator16FillPacketHeaderEPNS_16QuicPacketHeaderE(ptr noundef nonnull align 8 dereferenceable(312) %0, ptr noundef writeonly captures(none) initializes((0, 16), (40, 58)) %1) local_unnamed_addr #0 align 2 personality ptr @__gxx_personality_v0 {
  %3 = getelementptr inbounds nuw i8, ptr %0, i64 152
  %4 = load i64, ptr %3, align 8, !tbaa !78
  store i64 %4, ptr %1, align 8, !tbaa !176
  %5 = getelementptr inbounds nuw i8, ptr %0, i64 112
  %6 = load i32, ptr %5, align 8, !tbaa !77
  %7 = getelementptr inbounds nuw i8, ptr %1, i64 8
  store i32 %6, ptr %7, align 8, !tbaa !180
  %8 = getelementptr inbounds nuw i8, ptr %0, i64 57
  %9 = load i8, ptr %8, align 1, !tbaa !73, !range !94, !noundef !95
  %10 = getelementptr inbounds nuw i8, ptr %1, i64 12
  store i8 %9, ptr %10, align 4, !tbaa !181
  %11 = getelementptr inbounds nuw i8, ptr %1, i64 13
  store i8 0, ptr %11, align 1, !tbaa !182
  %12 = getelementptr inbounds nuw i8, ptr %0, i64 56
  %13 = load i8, ptr %12, align 8, !tbaa !72, !range !94, !noundef !95
  %14 = getelementptr inbounds nuw i8, ptr %1, i64 14
  store i8 %13, ptr %14, align 2, !tbaa !183
  %15 = getelementptr inbounds nuw i8, ptr %0, i64 59
  %16 = load i8, ptr %15, align 1, !tbaa !75, !range !94, !noundef !95
  %17 = trunc nuw i8 %16 to i1
  %18 = getelementptr inbounds nuw i8, ptr %0, i64 217
  %19 = load i8, ptr %18, align 1
  %20 = icmp eq i8 %19, 1
  %21 = select i1 %17, i1 %20, i1 false
  %22 = getelementptr inbounds nuw i8, ptr %0, i64 60
  %spec.select = select i1 %21, ptr %22, ptr null
  %23 = getelementptr inbounds nuw i8, ptr %1, i64 40
  store ptr %spec.select, ptr %23, align 8, !tbaa !184
  %24 = getelementptr inbounds nuw i8, ptr %0, i64 204
  %25 = load i8, ptr %24, align 4, !tbaa !185
  %26 = getelementptr inbounds nuw i8, ptr %1, i64 56
  store i8 %25, ptr %26, align 8, !tbaa !186
  %27 = getelementptr inbounds nuw i8, ptr %0, i64 208
  %28 = load i64, ptr %27, align 8, !tbaa !100
  %29 = add i64 %28, 1
  store i64 %29, ptr %27, align 8, !tbaa !100
  %30 = getelementptr inbounds nuw i8, ptr %1, i64 48
  store i64 %29, ptr %30, align 8, !tbaa !187
  %31 = getelementptr inbounds nuw i8, ptr %0, i64 216
  %32 = load i8, ptr %31, align 8, !tbaa !89
  %33 = getelementptr inbounds nuw i8, ptr %1, i64 15
  store i8 %32, ptr %33, align 1, !tbaa !188
  %34 = getelementptr inbounds nuw i8, ptr %0, i64 40
  %35 = load i64, ptr %34, align 8, !tbaa !189
  %36 = icmp eq i64 %35, 0
  br i1 %36, label %37, label %._crit_edge.i

._crit_edge.i:                                    ; preds = %2
  %.phi.trans.insert.i = getelementptr inbounds nuw i8, ptr %0, i64 32
  %.pre.i = load i64, ptr %.phi.trans.insert.i, align 8, !tbaa !190
  br label %_ZN3net17QuicPacketCreator20QuicRandomBoolSource8RandBoolEv.exit

37:                                               ; preds = %2
  %38 = getelementptr inbounds nuw i8, ptr %0, i64 24
  %39 = load ptr, ptr %38, align 8, !tbaa !191
  %40 = load ptr, ptr %39, align 8, !tbaa !123
  %41 = getelementptr inbounds nuw i8, ptr %40, i64 24
  %42 = load ptr, ptr %41, align 8
  %43 = tail call noundef i64 %42(ptr noundef nonnull align 8 dereferenceable(8) %39)
  %44 = getelementptr inbounds nuw i8, ptr %0, i64 32
  store i64 %43, ptr %44, align 8, !tbaa !190
  br label %_ZN3net17QuicPacketCreator20QuicRandomBoolSource8RandBoolEv.exit

_ZN3net17QuicPacketCreator20QuicRandomBoolSource8RandBoolEv.exit: ; preds = %._crit_edge.i, %37
  %45 = phi i64 [ %35, %._crit_edge.i ], [ 1, %37 ]
  %46 = phi i64 [ %.pre.i, %._crit_edge.i ], [ %43, %37 ]
  %47 = and i64 %46, %45
  %48 = icmp ne i64 %47, 0
  %49 = shl i64 %45, 1
  store i64 %49, ptr %34, align 8, !tbaa !189
  %50 = getelementptr inbounds nuw i8, ptr %1, i64 57
  %51 = zext i1 %48 to i8
  store i8 %51, ptr %50, align 1, !tbaa !192
  ret void
}